; Function Attrs: nounwind uwtable
define ptr @l_Lake_RBNode_dFind___at_Lake_recFetchWithIndex___spec__2(ptr noundef %0, ptr noundef %1) local_unnamed_addr #1 {
  br label %3

3:                                                ; preds = %.backedge, %2
  %.017 = phi ptr [ %0, %2 ], [ %.017.be, %.backedge ]
  %4 = ptrtoint ptr %.017 to i64
  %5 = and i64 %4, 1
  %.not.i = icmp eq i64 %5, 0
  br i1 %.not.i, label %9, label %6

6:                                                ; preds = %3
  %7 = lshr i64 %4, 1
  %8 = trunc i64 %7 to i32
  br label %lean_obj_tag.exit

9:                                                ; preds = %3
  %10 = getelementptr i8, ptr %.017, i64 4
  %.val.i = load i32, ptr %10, align 4
  %11 = lshr i32 %.val.i, 24
  br label %lean_obj_tag.exit

lean_obj_tag.exit:                                ; preds = %6, %9
  %.0.i = phi i32 [ %8, %6 ], [ %11, %9 ]
  %12 = icmp eq i32 %.0.i, 0
  br i1 %12, label %.loopexit, label %13

13:                                               ; preds = %lean_obj_tag.exit
  %14 = getelementptr inbounds nuw i8, ptr %.017, i64 8
  %15 = load ptr, ptr %14, align 8, !tbaa !4
  %16 = getelementptr inbounds nuw i8, ptr %.017, i64 16
  %17 = load ptr, ptr %16, align 8, !tbaa !4
  %18 = getelementptr inbounds nuw i8, ptr %.017, i64 24
  %19 = load ptr, ptr %18, align 8, !tbaa !4
  %20 = getelementptr inbounds nuw i8, ptr %.017, i64 32
  %21 = load ptr, ptr %20, align 8, !tbaa !4
  %22 = tail call zeroext i8 @l_Lake_BuildKey_quickCmp(ptr noundef %1, ptr noundef %17) #5
  switch i8 %22, label %37 [
    i8 0, label %.backedge
    i8 1, label %23
  ]

.backedge:                                        ; preds = %13, %37
  %.017.be = phi ptr [ %21, %37 ], [ %15, %13 ]
  br label %3

23:                                               ; preds = %13
  %24 = ptrtoint ptr %19 to i64
  %25 = and i64 %24, 1
  %.not = icmp eq i64 %25, 0
  br i1 %.not, label %26, label %lean_inc.exit

26:                                               ; preds = %23
  %.val.i19 = load i32, ptr %19, align 4, !tbaa !8
  %27 = icmp sgt i32 %.val.i19, 0
  br i1 %27, label %28, label %30, !prof !11

28:                                               ; preds = %26
  %29 = add nuw i32 %.val.i19, 1
  store i32 %29, ptr %19, align 4, !tbaa !8
  br label %lean_inc.exit

30:                                               ; preds = %26
  %.not.i20 = icmp eq i32 %.val.i19, 0
  br i1 %.not.i20, label %lean_inc.exit, label %31

31:                                               ; preds = %30
  tail call void @lean_inc_ref_cold(ptr noundef nonnull %19) #5
  br label %lean_inc.exit

lean_inc.exit:                                    ; preds = %31, %30, %28, %23
  tail call void @lean_inc_heartbeat() #5
  %32 = tail call noalias ptr @mi_malloc_small(i64 noundef 16) #5
  %33 = icmp eq ptr %32, null
  br i1 %33, label %34, label %.thread

34:                                               ; preds = %lean_inc.exit
  tail call void @lean_internal_panic_out_of_memory() #6
  unreachable

.thread:                                          ; preds = %lean_inc.exit
  %35 = getelementptr inbounds nuw i8, ptr %32, i64 4
  store i32 1, ptr %32, align 4, !tbaa !8
  store i32 16842768, ptr %35, align 4
  %36 = getelementptr inbounds nuw i8, ptr %32, i64 8
  store ptr %19, ptr %36, align 8, !tbaa !4
  br label %.loopexit

37:                                               ; preds = %13
  br label %.backedge

.loopexit:                                        ; preds = %lean_obj_tag.exit, %.thread
  %.1 = phi ptr [ %32, %.thread ], [ inttoptr (i64 1 to ptr), %lean_obj_tag.exit ]
  ret ptr %.1
}